; Function Attrs: mustprogress nounwind uwtable
define dso_local void @_ZN4node6crypto10ByteSource18NullTerminatedCopyEPNS_11EnvironmentEN2v85LocalINS4_5ValueEEE(ptr noalias sret(%"class.node::crypto::ByteSource") align 8 %agg.result, ptr nocapture noundef readonly %env, ptr %value.coerce) local_unnamed_addr #4 align 2 {
entry:
  %buf.i = alloca %"class.node::crypto::ArrayBufferOrViewContents", align 8
  %call = tail call noundef zeroext i1 @_ZN4node6Buffer11HasInstanceEN2v85LocalINS1_5ValueEEE(ptr %value.coerce) #25
  br i1 %call, label %cond.true, label %cond.false

cond.true:                                        ; preds = %entry
  call void @llvm.lifetime.start.p0(i64 32, ptr nonnull %buf.i)
  call void @_ZN4node6crypto25ArrayBufferOrViewContentsIcEC2EN2v85LocalINS3_5ValueEEE(ptr noundef nonnull align 8 dereferenceable(32) %buf.i, ptr %value.coerce), !noalias !67
  call void @_ZNK4node6crypto25ArrayBufferOrViewContentsIcE20ToNullTerminatedCopyEv(ptr sret(%"class.node::crypto::ByteSource") align 8 %agg.result, ptr noundef nonnull align 8 dereferenceable(32) %buf.i)
  call void @llvm.lifetime.end.p0(i64 32, ptr nonnull %buf.i)
  br label %cond.end

cond.false:                                       ; preds = %entry
  tail call void @_ZN4node6crypto10ByteSource10FromStringEPNS_11EnvironmentEN2v85LocalINS4_6StringEEEb(ptr sret(%"class.node::crypto::ByteSource") align 8 %agg.result, ptr noundef %env, ptr %value.coerce, i1 noundef zeroext true)
  br label %cond.end

cond.end:                                         ; preds = %cond.false, %cond.true
  ret void
}